; Function Attrs: nounwind uwtable
define noundef ptr @stbi__readval(ptr noundef %0, i32 noundef %1, ptr noundef writeonly captures(ret: address, provenance) %2) local_unnamed_addr #2 {
  %4 = getelementptr inbounds nuw i8, ptr %0, i64 16
  %5 = getelementptr inbounds nuw i8, ptr %0, i64 32
  %6 = getelementptr inbounds nuw i8, ptr %0, i64 40
  %7 = getelementptr inbounds nuw i8, ptr %0, i64 48
  %8 = getelementptr inbounds nuw i8, ptr %0, i64 192
  %9 = getelementptr inbounds nuw i8, ptr %0, i64 200
  %10 = getelementptr inbounds nuw i8, ptr %0, i64 56
  %11 = getelementptr inbounds nuw i8, ptr %0, i64 52
  %12 = getelementptr inbounds nuw i8, ptr %0, i64 208
  %13 = getelementptr inbounds nuw i8, ptr %0, i64 184
  %14 = getelementptr inbounds nuw i8, ptr %0, i64 57
  br label %15

15:                                               ; preds = %3, %57
  %indvars.iv = phi i64 [ 0, %3 ], [ %indvars.iv.next, %57 ]
  %.01021 = phi i32 [ 128, %3 ], [ %58, %57 ]
  %16 = and i32 %.01021, %1
  %.not = icmp eq i32 %16, 0
  br i1 %.not, label %57, label %17

17:                                               ; preds = %15
  %18 = load ptr, ptr %4, align 8, !tbaa !3
  %.not.i = icmp eq ptr %18, null
  br i1 %.not.i, label %stbi__at_eof.exit, label %19

19:                                               ; preds = %17
  %20 = load ptr, ptr %5, align 8, !tbaa !76
  %21 = load ptr, ptr %6, align 8, !tbaa !19
  %22 = tail call i32 %20(ptr noundef %21) #37
  %.not6.i = icmp eq i32 %22, 0
  br i1 %.not6.i, label %.stbi__at_eof.exit.thread_crit_edge, label %23

.stbi__at_eof.exit.thread_crit_edge:              ; preds = %19
  %.pre = load ptr, ptr %8, align 8, !tbaa !14
  %.pre24 = load ptr, ptr %9, align 8, !tbaa !16
  br label %stbi__at_eof.exit.thread

23:                                               ; preds = %19
  %24 = load i32, ptr %7, align 8, !tbaa !11
  %25 = icmp eq i32 %24, 0
  br i1 %25, label %stbi__at_eof.exit.thread17, label %stbi__at_eof.exit

stbi__at_eof.exit:                                ; preds = %17, %23
  %26 = load ptr, ptr %8, align 8, !tbaa !14
  %27 = load ptr, ptr %9, align 8, !tbaa !16
  %.not20 = icmp ult ptr %26, %27
  br i1 %.not20, label %stbi__at_eof.exit.thread, label %stbi__at_eof.exit.thread17

stbi__at_eof.exit.thread17:                       ; preds = %23, %stbi__at_eof.exit
  %28 = tail call align 8 ptr @llvm.threadlocal.address.p0(ptr align 8 @stbi__g_failure_reason)
  store ptr @.str.90, ptr %28, align 8, !tbaa !22
  br label %.loopexit

stbi__at_eof.exit.thread:                         ; preds = %.stbi__at_eof.exit.thread_crit_edge, %stbi__at_eof.exit
  %29 = phi ptr [ %.pre24, %.stbi__at_eof.exit.thread_crit_edge ], [ %27, %stbi__at_eof.exit ]
  %30 = phi ptr [ %.pre, %.stbi__at_eof.exit.thread_crit_edge ], [ %26, %stbi__at_eof.exit ]
  %31 = icmp ult ptr %30, %29
  br i1 %31, label %32, label %35

32:                                               ; preds = %stbi__at_eof.exit.thread
  %33 = getelementptr inbounds nuw i8, ptr %30, i64 1
  store ptr %33, ptr %8, align 8, !tbaa !14
  %34 = load i8, ptr %30, align 1, !tbaa !21
  br label %stbi__get8.exit

35:                                               ; preds = %stbi__at_eof.exit.thread
  %36 = load i32, ptr %7, align 8, !tbaa !11
  %.not.i13 = icmp eq i32 %36, 0
  br i1 %.not.i13, label %stbi__get8.exit, label %37

37:                                               ; preds = %35
  %38 = load ptr, ptr %4, align 8, !tbaa !3
  %39 = load ptr, ptr %6, align 8, !tbaa !19
  %40 = load i32, ptr %11, align 4, !tbaa !20
  %41 = tail call i32 %38(ptr noundef %39, ptr noundef nonnull %10, i32 noundef %40) #37
  %42 = load ptr, ptr %8, align 8, !tbaa !14
  %43 = load ptr, ptr %12, align 8, !tbaa !13
  %44 = ptrtoint ptr %42 to i64
  %45 = ptrtoint ptr %43 to i64
  %46 = sub i64 %44, %45
  %47 = trunc i64 %46 to i32
  %48 = load i32, ptr %13, align 8, !tbaa !12
  %49 = add nsw i32 %48, %47
  store i32 %49, ptr %13, align 8, !tbaa !12
  %50 = icmp eq i32 %41, 0
  br i1 %50, label %51, label %52

51:                                               ; preds = %37
  store i32 0, ptr %7, align 8, !tbaa !11
  store i8 0, ptr %10, align 1, !tbaa !21
  br label %stbi__refill_buffer.exit.i

52:                                               ; preds = %37
  %53 = sext i32 %41 to i64
  %54 = getelementptr inbounds i8, ptr %10, i64 %53
  %.pre.i = load i8, ptr %10, align 1, !tbaa !21
  br label %stbi__refill_buffer.exit.i

stbi__refill_buffer.exit.i:                       ; preds = %52, %51
  %55 = phi i8 [ 0, %51 ], [ %.pre.i, %52 ]
  %.sink.i.i = phi ptr [ %14, %51 ], [ %54, %52 ]
  store ptr %.sink.i.i, ptr %9, align 8, !tbaa !16
  store ptr %14, ptr %8, align 8, !tbaa !14
  br label %stbi__get8.exit

stbi__get8.exit:                                  ; preds = %32, %35, %stbi__refill_buffer.exit.i
  %.0.i14 = phi i8 [ %34, %32 ], [ %55, %stbi__refill_buffer.exit.i ], [ 0, %35 ]
  %56 = getelementptr inbounds nuw i8, ptr %2, i64 %indvars.iv
  store i8 %.0.i14, ptr %56, align 1, !tbaa !21
  br label %57

57:                                               ; preds = %15, %stbi__get8.exit
  %indvars.iv.next = add nuw nsw i64 %indvars.iv, 1
  %58 = lshr i32 %.01021, 1
  %exitcond.not = icmp eq i64 %indvars.iv.next, 4
  br i1 %exitcond.not, label %.loopexit, label %15, !llvm.loop !338

.loopexit:                                        ; preds = %57, %stbi__at_eof.exit.thread17
  %.011 = phi ptr [ null, %stbi__at_eof.exit.thread17 ], [ %2, %57 ]
  ret ptr %.011
}